target datalayout = "e-m:e-p270:32:32-p271:32:32-p272:64:64-i64:64-i128:128-f80:128-n8:16:32:64-S128"
target triple = "x86_64-unknown-linux-gnu"

%struct.Token = type { i32, ptr, i64, x86_fp80, ptr, i32, ptr, ptr, ptr, ptr, i32, i32, i8, i8, ptr, ptr }
%struct.Type = type { i32, i32, i32, i8, i8, ptr, ptr, ptr, ptr, i32, ptr, ptr, ptr, i8, i8, ptr, ptr, i8, ptr }

; Function Attrs: nounwind uwtable
define dso_local ptr @tokenize_string_literal(ptr noundef %tok, ptr noundef %basety) #4 {
entry:
  %tok.addr = alloca ptr, align 8
  %basety.addr = alloca ptr, align 8
  %t = alloca ptr, align 8
  store ptr %tok, ptr %tok.addr, align 8
  store ptr %basety, ptr %basety.addr, align 8
  %0 = load ptr, ptr %basety.addr, align 8
  %size = getelementptr inbounds %struct.Type, ptr %0, i32 0, i32 1
  %1 = load i32, ptr %size, align 4
  %cmp = icmp eq i32 %1, 2
  br i1 %cmp, label %if.then, label %if.else

if.then:                                          ; preds = %entry
  %2 = load ptr, ptr %tok.addr, align 8
  %loc = getelementptr inbounds %struct.Token, ptr %2, i32 0, i32 4
  %3 = load ptr, ptr %loc, align 16
  %4 = load ptr, ptr %tok.addr, align 8
  %loc1 = getelementptr inbounds %struct.Token, ptr %4, i32 0, i32 4
  %5 = load ptr, ptr %loc1, align 16
  %call = call ptr @read_utf16_string_literal(ptr noundef %3, ptr noundef %5)
  store ptr %call, ptr %t, align 8
  br label %if.end

if.else:                                          ; preds = %entry
  %6 = load ptr, ptr %tok.addr, align 8
  %loc2 = getelementptr inbounds %struct.Token, ptr %6, i32 0, i32 4
  %7 = load ptr, ptr %loc2, align 16
  %8 = load ptr, ptr %tok.addr, align 8
  %loc3 = getelementptr inbounds %struct.Token, ptr %8, i32 0, i32 4
  %9 = load ptr, ptr %loc3, align 16
  %10 = load ptr, ptr %basety.addr, align 8
  %call4 = call ptr @read_utf32_string_literal(ptr noundef %7, ptr noundef %9, ptr noundef %10)
  store ptr %call4, ptr %t, align 8
  br label %if.end

if.end:                                           ; preds = %if.else, %if.then
  %11 = load ptr, ptr %tok.addr, align 8
  %next = getelementptr inbounds %struct.Token, ptr %11, i32 0, i32 1
  %12 = load ptr, ptr %next, align 8
  %13 = load ptr, ptr %t, align 8
  %next5 = getelementptr inbounds %struct.Token, ptr %13, i32 0, i32 1
  store ptr %12, ptr %next5, align 8
  %14 = load ptr, ptr %t, align 8
  ret ptr %14
}