; Function Attrs: nounwind uwtable
define dso_local noalias noundef ptr @tokenize_string_literal(ptr nocapture noundef readonly %tok, ptr noundef %basety) local_unnamed_addr #4 {
entry:
  %size = getelementptr inbounds %struct.Type, ptr %basety, i64 0, i32 1
  %0 = load i32, ptr %size, align 4
  %cmp = icmp eq i32 %0, 2
  %loc = getelementptr inbounds %struct.Token, ptr %tok, i64 0, i32 4
  %1 = load ptr, ptr %loc, align 16
  br i1 %cmp, label %if.then, label %if.else

if.then:                                          ; preds = %entry
  %call = tail call fastcc ptr @read_utf16_string_literal(ptr noundef %1, ptr noundef %1)
  br label %if.end

if.else:                                          ; preds = %entry
  %call4 = tail call fastcc ptr @read_utf32_string_literal(ptr noundef %1, ptr noundef %1, ptr noundef nonnull %basety)
  br label %if.end

if.end:                                           ; preds = %if.else, %if.then
  %t.0 = phi ptr [ %call, %if.then ], [ %call4, %if.else ]
  %next = getelementptr inbounds %struct.Token, ptr %tok, i64 0, i32 1
  %2 = load ptr, ptr %next, align 8
  %next5 = getelementptr inbounds %struct.Token, ptr %t.0, i64 0, i32 1
  store ptr %2, ptr %next5, align 8
  ret ptr %t.0
}